target datalayout = "e-m:e-p270:32:32-p271:32:32-p272:64:64-i64:64-i128:128-f80:128-n8:16:32:64-S128"
target triple = "x86_64-pc-linux-gnu"

%struct.lf_state = type { ptr, i64, [32 x ptr] }

@stderr = external global ptr, align 8
@.str = private unnamed_addr constant [4 x i8] c"%s\0A\00", align 1
@.str.6 = private unnamed_addr constant [34 x i8] c"CORD_lf_close_proc: fclose failed\00", align 1

; Function Attrs: nounwind uwtable
define internal void @CORD_lf_close_proc(ptr noundef %0, ptr noundef %1) #0 {
  %3 = alloca ptr, align 8
  %4 = alloca ptr, align 8
  store ptr %0, ptr %3, align 8, !tbaa !28
  store ptr %1, ptr %4, align 8, !tbaa !28
  %5 = load ptr, ptr %3, align 8, !tbaa !28
  %6 = getelementptr inbounds nuw %struct.lf_state, ptr %5, i32 0, i32 0
  %7 = load ptr, ptr %6, align 8, !tbaa !39
  %8 = call i32 @fclose(ptr noundef %7)
  %9 = icmp ne i32 %8, 0
  br i1 %9, label %10, label %13

10:                                               ; preds = %2
  %11 = load ptr, ptr @stderr, align 8, !tbaa !9
  %12 = call i32 (ptr, ptr, ...) @fprintf(ptr noundef %11, ptr noundef @.str, ptr noundef @.str.6) #9
  call void @abort() #11
  unreachable

13:                                               ; preds = %2
  ret void
}