; Function Attrs: nofree nounwind uwtable
define internal void @CORD_lf_close_proc(ptr noundef readonly captures(none) %0, ptr readnone captures(none) %1) #9 {
  %3 = load ptr, ptr %0, align 8, !tbaa !34
  %4 = tail call i32 @fclose(ptr noundef %3)
  %.not = icmp eq i32 %4, 0
  br i1 %.not, label %8, label %5

5:                                                ; preds = %2
  %6 = load ptr, ptr @stderr, align 8, !tbaa !3
  %7 = tail call i32 (ptr, ptr, ...) @fprintf(ptr noundef %6, ptr noundef nonnull @.str, ptr noundef nonnull @.str.6) #18
  tail call void @abort() #19
  unreachable

8:                                                ; preds = %2
  ret void
}